; Function Attrs: nofree norecurse nosync nounwind memory(argmem: readwrite) uwtable
define internal fastcc nonnull ptr @jvp_object_find_bucket(i64 %0, ptr readnone captures(ret: address, provenance) %1, ptr captures(none) %2) unnamed_addr #19 {
  %4 = getelementptr inbounds nuw i8, ptr %2, i64 8
  %5 = load i32, ptr %4, align 4, !tbaa !4
  %6 = and i32 %5, 1
  %.not.i = icmp eq i32 %6, 0
  br i1 %.not.i, label %10, label %7

7:                                                ; preds = %3
  %8 = getelementptr inbounds nuw i8, ptr %2, i64 4
  %9 = load i32, ptr %8, align 4, !tbaa !4
  br label %jvp_string_hash.exit

10:                                               ; preds = %3
  %11 = getelementptr inbounds nuw i8, ptr %2, i64 16
  %12 = lshr exact i32 %5, 1
  %13 = and i32 %12, 2147483644
  %14 = zext nneg i32 %13 to i64
  %15 = getelementptr inbounds nuw i8, ptr %11, i64 %14
  %.not5152.i = icmp ult i32 %5, 8
  br i1 %.not5152.i, label %._crit_edge.i, label %.lr.ph.preheader.i

.lr.ph.preheader.i:                               ; preds = %10
  %16 = lshr i32 %5, 3
  %17 = sub nsw i32 0, %16
  %18 = sext i32 %17 to i64
  br label %.lr.ph.i

._crit_edge.i:                                    ; preds = %.lr.ph.i, %10
  %.049.lcssa.i = phi i32 [ 1126864963, %10 ], [ %28, %.lr.ph.i ]
  %19 = and i32 %12, 3
  switch i32 %19, label %default.unreachable [
    i32 3, label %30
    i32 2, label %35
    i32 1, label %41
    i32 0, label %49
  ]

.lr.ph.i:                                         ; preds = %.lr.ph.i, %.lr.ph.preheader.i
  %indvars.iv.i = phi i64 [ %18, %.lr.ph.preheader.i ], [ %indvars.iv.next.i, %.lr.ph.i ]
  %.04953.i = phi i32 [ 1126864963, %.lr.ph.preheader.i ], [ %28, %.lr.ph.i ]
  %20 = getelementptr inbounds i32, ptr %15, i64 %indvars.iv.i
  %21 = load i32, ptr %20, align 4, !tbaa !4
  %22 = mul i32 %21, -862048943
  %23 = tail call i32 @llvm.fshl.i32(i32 %22, i32 %22, i32 15)
  %24 = mul i32 %23, 461845907
  %25 = xor i32 %24, %.04953.i
  %26 = tail call i32 @llvm.fshl.i32(i32 %25, i32 %25, i32 13)
  %27 = mul i32 %26, 5
  %28 = add i32 %27, -430675100
  %indvars.iv.next.i = add nsw i64 %indvars.iv.i, 1
  %29 = icmp eq i64 %indvars.iv.next.i, 0
  br i1 %29, label %._crit_edge.i, label %.lr.ph.i, !llvm.loop !55

30:                                               ; preds = %._crit_edge.i
  %31 = getelementptr inbounds nuw i8, ptr %15, i64 2
  %32 = load i8, ptr %31, align 1, !tbaa !8
  %33 = zext i8 %32 to i32
  %34 = shl nuw nsw i32 %33, 16
  br label %35

35:                                               ; preds = %30, %._crit_edge.i
  %.0.i = phi i32 [ 0, %._crit_edge.i ], [ %34, %30 ]
  %36 = getelementptr inbounds nuw i8, ptr %15, i64 1
  %37 = load i8, ptr %36, align 1, !tbaa !8
  %38 = zext i8 %37 to i32
  %39 = shl nuw nsw i32 %38, 8
  %40 = or disjoint i32 %39, %.0.i
  br label %41

41:                                               ; preds = %35, %._crit_edge.i
  %.1.i = phi i32 [ 0, %._crit_edge.i ], [ %40, %35 ]
  %42 = load i8, ptr %15, align 1, !tbaa !8
  %43 = zext i8 %42 to i32
  %44 = xor i32 %.1.i, %43
  %45 = mul i32 %44, -862048943
  %46 = tail call i32 @llvm.fshl.i32(i32 %45, i32 %45, i32 15)
  %47 = mul i32 %46, 461845907
  %48 = xor i32 %47, %.049.lcssa.i
  br label %49

default.unreachable:                              ; preds = %._crit_edge.i
  unreachable

49:                                               ; preds = %41, %._crit_edge.i
  %.150.i = phi i32 [ %.049.lcssa.i, %._crit_edge.i ], [ %48, %41 ]
  %50 = xor i32 %.150.i, %12
  %51 = lshr i32 %50, 16
  %52 = xor i32 %51, %50
  %53 = mul i32 %52, -2048144789
  %54 = lshr i32 %53, 13
  %55 = xor i32 %54, %53
  %56 = mul i32 %55, -1028477387
  %57 = lshr i32 %56, 16
  %58 = xor i32 %57, %56
  %59 = or disjoint i32 %5, 1
  store i32 %59, ptr %4, align 4, !tbaa !4
  %60 = getelementptr inbounds nuw i8, ptr %2, i64 4
  store i32 %58, ptr %60, align 4, !tbaa !4
  br label %jvp_string_hash.exit

jvp_string_hash.exit:                             ; preds = %7, %49
  %.047.i = phi i32 [ %9, %7 ], [ %58, %49 ]
  %sh.diff.i = lshr i64 %0, 31
  %tr.sh.diff.i = trunc i64 %sh.diff.i to i32
  %61 = and i32 %tr.sh.diff.i, -2
  %62 = add nsw i32 %61, -1
  %63 = getelementptr inbounds nuw i8, ptr %1, i64 8
  %64 = ashr i64 %0, 32
  %65 = getelementptr inbounds [0 x %struct.object_slot], ptr %63, i64 0, i64 %64
  %66 = and i32 %.047.i, %62
  %67 = zext i32 %66 to i64
  %68 = getelementptr inbounds nuw i32, ptr %65, i64 %67
  ret ptr %68
}